;--------------------------------------------------------
; File Created by SDCC : free open source ANSI-C Compiler
; Version 4.2.0 #13081 (MINGW64)
;--------------------------------------------------------
	.module menu
	.optsdcc -mmcs51 --model-small
	
;--------------------------------------------------------
; Public variables in this module
;--------------------------------------------------------
	.globl _printf_tiny
	.globl _menu
;--------------------------------------------------------
; special function registers
;--------------------------------------------------------
	.area RSEG    (ABS,DATA)
	.org 0x0000
;--------------------------------------------------------
; special function bits
;--------------------------------------------------------
	.area RSEG    (ABS,DATA)
	.org 0x0000
;--------------------------------------------------------
; overlayable register banks
;--------------------------------------------------------
	.area REG_BANK_0	(REL,OVR,DATA)
	.ds 8
;--------------------------------------------------------
; internal ram data
;--------------------------------------------------------
	.area DSEG    (DATA)
;--------------------------------------------------------
; overlayable items in internal ram
;--------------------------------------------------------
;--------------------------------------------------------
; indirectly addressable internal ram data
;--------------------------------------------------------
	.area ISEG    (DATA)
;--------------------------------------------------------
; absolute internal ram data
;--------------------------------------------------------
	.area IABS    (ABS,DATA)
	.area IABS    (ABS,DATA)
;--------------------------------------------------------
; bit data
;--------------------------------------------------------
	.area BSEG    (BIT)
;--------------------------------------------------------
; paged external ram data
;--------------------------------------------------------
	.area PSEG    (PAG,XDATA)
;--------------------------------------------------------
; external ram data
;--------------------------------------------------------
	.area XSEG    (XDATA)
;--------------------------------------------------------
; absolute external ram data
;--------------------------------------------------------
	.area XABS    (ABS,XDATA)
;--------------------------------------------------------
; external initialized ram data
;--------------------------------------------------------
	.area XISEG   (XDATA)
	.area HOME    (CODE)
	.area GSINIT0 (CODE)
	.area GSINIT1 (CODE)
	.area GSINIT2 (CODE)
	.area GSINIT3 (CODE)
	.area GSINIT4 (CODE)
	.area GSINIT5 (CODE)
	.area GSINIT  (CODE)
	.area GSFINAL (CODE)
	.area CSEG    (CODE)
;--------------------------------------------------------
; global & static initialisations
;--------------------------------------------------------
	.area HOME    (CODE)
	.area GSINIT  (CODE)
	.area GSFINAL (CODE)
	.area GSINIT  (CODE)
;--------------------------------------------------------
; Home
;--------------------------------------------------------
	.area HOME    (CODE)
	.area HOME    (CODE)
;--------------------------------------------------------
; code
;--------------------------------------------------------
	.area CSEG    (CODE)
;------------------------------------------------------------
;Allocation info for local variables in function 'menu'
;------------------------------------------------------------
;	menu.c:20: void menu(){
;	-----------------------------------------
;	 function menu
;	-----------------------------------------
_menu:
	ar7 = 0x07
	ar6 = 0x06
	ar5 = 0x05
	ar4 = 0x04
	ar3 = 0x03
	ar2 = 0x02
	ar1 = 0x01
	ar0 = 0x00
;	menu.c:22: printf_tiny("Choose the options from below menu: \n\r");
	mov	a,#___str_0
	push	acc
	mov	a,#(___str_0 >> 8)
	push	acc
	lcall	_printf_tiny
	dec	sp
	dec	sp
;	menu.c:23: printf_tiny("[a]. Run PWM (turn on PWM output)\n\r");
	mov	a,#___str_1
	push	acc
	mov	a,#(___str_1 >> 8)
	push	acc
	lcall	_printf_tiny
	dec	sp
	dec	sp
;	menu.c:24: printf_tiny("[b]. Stop PWM (turn off PWM output)\n\r");
	mov	a,#___str_2
	push	acc
	mov	a,#(___str_2 >> 8)
	push	acc
	lcall	_printf_tiny
	dec	sp
	dec	sp
;	menu.c:25: printf_tiny("[c]. Set FCLK PERIPH at the minimum frequency supported by the CKRL register\n\r");
	mov	a,#___str_3
	push	acc
	mov	a,#(___str_3 >> 8)
	push	acc
	lcall	_printf_tiny
	dec	sp
	dec	sp
;	menu.c:26: printf_tiny("[d]. Set FCLK PERIPH at the maximum frequency supported by the CKRL register\n\r");
	mov	a,#___str_4
	push	acc
	mov	a,#(___str_4 >> 8)
	push	acc
	lcall	_printf_tiny
	dec	sp
	dec	sp
;	menu.c:27: printf_tiny("[e]. Set Idle mode (set IDLE bit in PCON register)\n\r");
	mov	a,#___str_5
	push	acc
	mov	a,#(___str_5 >> 8)
	push	acc
	lcall	_printf_tiny
	dec	sp
	dec	sp
;	menu.c:28: printf_tiny("[f]. Clear Idle mode (clear IDLE bit in PCON register)\n\r");
	mov	a,#___str_6
	push	acc
	mov	a,#(___str_6 >> 8)
	push	acc
	lcall	_printf_tiny
	dec	sp
	dec	sp
;	menu.c:29: printf_tiny("[g]. Start watchdog timer \n\r");
	mov	a,#___str_7
	push	acc
	mov	a,#(___str_7 >> 8)
	push	acc
	lcall	_printf_tiny
	dec	sp
	dec	sp
;	menu.c:30: printf_tiny("[h]. Stop watchdog timer \n\r");
	mov	a,#___str_8
	push	acc
	mov	a,#(___str_8 >> 8)
	push	acc
	lcall	_printf_tiny
	dec	sp
	dec	sp
;	menu.c:31: printf_tiny("[i]. Set Power Down mode (set PDE bit in PCON register)\n\r");
	mov	a,#___str_9
	push	acc
	mov	a,#(___str_9 >> 8)
	push	acc
	lcall	_printf_tiny
	dec	sp
	dec	sp
;	menu.c:32: printf_tiny("[j]. Clear Power Down mode (clear PDE bit in PCON register)\n\r");
	mov	a,#___str_10
	push	acc
	mov	a,#(___str_10 >> 8)
	push	acc
	lcall	_printf_tiny
	dec	sp
	dec	sp
;	menu.c:33: printf_tiny("[k]. Enable High-Speed output \n\r");
	mov	a,#___str_11
	push	acc
	mov	a,#(___str_11 >> 8)
	push	acc
	lcall	_printf_tiny
	dec	sp
	dec	sp
;	menu.c:34: printf_tiny("[l]. Disable High-Speed output\n\r");
	mov	a,#___str_12
	push	acc
	mov	a,#(___str_12 >> 8)
	push	acc
	lcall	_printf_tiny
	dec	sp
	dec	sp
;	menu.c:35: }
	ret
	.area CSEG    (CODE)
	.area CONST   (CODE)
	.area CONST   (CODE)
___str_0:
	.ascii "Choose the options from below menu: "
	.db 0x0a
	.db 0x0d
	.db 0x00
	.area CSEG    (CODE)
	.area CONST   (CODE)
___str_1:
	.ascii "[a]. Run PWM (turn on PWM output)"
	.db 0x0a
	.db 0x0d
	.db 0x00
	.area CSEG    (CODE)
	.area CONST   (CODE)
___str_2:
	.ascii "[b]. Stop PWM (turn off PWM output)"
	.db 0x0a
	.db 0x0d
	.db 0x00
	.area CSEG    (CODE)
	.area CONST   (CODE)
___str_3:
	.ascii "[c]. Set FCLK PERIPH at the minimum frequency supported by t"
	.ascii "he CKRL register"
	.db 0x0a
	.db 0x0d
	.db 0x00
	.area CSEG    (CODE)
	.area CONST   (CODE)
___str_4:
	.ascii "[d]. Set FCLK PERIPH at the maximum frequency supported by t"
	.ascii "he CKRL register"
	.db 0x0a
	.db 0x0d
	.db 0x00
	.area CSEG    (CODE)
	.area CONST   (CODE)
___str_5:
	.ascii "[e]. Set Idle mode (set IDLE bit in PCON register)"
	.db 0x0a
	.db 0x0d
	.db 0x00
	.area CSEG    (CODE)
	.area CONST   (CODE)
___str_6:
	.ascii "[f]. Clear Idle mode (clear IDLE bit in PCON register)"
	.db 0x0a
	.db 0x0d
	.db 0x00
	.area CSEG    (CODE)
	.area CONST   (CODE)
___str_7:
	.ascii "[g]. Start watchdog timer "
	.db 0x0a
	.db 0x0d
	.db 0x00
	.area CSEG    (CODE)
	.area CONST   (CODE)
___str_8:
	.ascii "[h]. Stop watchdog timer "
	.db 0x0a
	.db 0x0d
	.db 0x00
	.area CSEG    (CODE)
	.area CONST   (CODE)
___str_9:
	.ascii "[i]. Set Power Down mode (set PDE bit in PCON register)"
	.db 0x0a
	.db 0x0d
	.db 0x00
	.area CSEG    (CODE)
	.area CONST   (CODE)
___str_10:
	.ascii "[j]. Clear Power Down mode (clear PDE bit in PCON register)"
	.db 0x0a
	.db 0x0d
	.db 0x00
	.area CSEG    (CODE)
	.area CONST   (CODE)
___str_11:
	.ascii "[k]. Enable High-Speed output "
	.db 0x0a
	.db 0x0d
	.db 0x00
	.area CSEG    (CODE)
	.area CONST   (CODE)
___str_12:
	.ascii "[l]. Disable High-Speed output"
	.db 0x0a
	.db 0x0d
	.db 0x00
	.area CSEG    (CODE)
	.area XINIT   (CODE)
	.area CABS    (ABS,CODE)
